; ModuleID = 'source-C-CXX/26/2141.c'
source_filename = "source-C-CXX/26/2141.c"
target datalayout = "e-m:e-p270:32:32-p271:32:32-p272:64:64-i64:64-f80:128-n8:16:32:64-S128"
target triple = "x86_64-pc-linux-gnu"

%struct._IO_FILE = type { i32, i8*, i8*, i8*, i8*, i8*, i8*, i8*, i8*, i8*, i8*, i8*, %struct._IO_marker*, %struct._IO_FILE*, i32, i32, i64, i16, i8, [1 x i8], i8*, i64, %struct._IO_codecvt*, %struct._IO_wide_data*, %struct._IO_FILE*, i8*, i64, i32, [20 x i8] }
%struct._IO_marker = type opaque
%struct._IO_codecvt = type opaque
%struct._IO_wide_data = type opaque

@.str = private unnamed_addr constant [3 x i8] c"%d\00", align 1
@.str.1 = private unnamed_addr constant [12 x i8] c"%lf %lf %lf\00", align 1
@.str.2 = private unnamed_addr constant [19 x i8] c"x1=%.5lf;x2=%.5lf\0A\00", align 1
@.str.3 = private unnamed_addr constant [13 x i8] c"x1=x2=%.5lf\0A\00", align 1
@.str.4 = private unnamed_addr constant [29 x i8] c"x1=%.5f+%.5fi;x2=%.5f-%.5fi\0A\00", align 1
@stdin = external local_unnamed_addr global %struct._IO_FILE*, align 8

; Function Attrs: nofree nounwind sspstrong uwtable
define dso_local i32 @main() local_unnamed_addr #0 {
  %1 = alloca i32, align 4
  %2 = alloca [20 x double], align 16
  %3 = alloca [20 x double], align 16
  %4 = alloca [20 x double], align 16
  %5 = bitcast i32* %1 to i8*
  call void @llvm.lifetime.start.p0i8(i64 4, i8* nonnull %5) #5
  %6 = bitcast [20 x double]* %2 to i8*
  call void @llvm.lifetime.start.p0i8(i64 160, i8* nonnull %6) #5
  %7 = bitcast [20 x double]* %3 to i8*
  call void @llvm.lifetime.start.p0i8(i64 160, i8* nonnull %7) #5
  %8 = bitcast [20 x double]* %4 to i8*
  call void @llvm.lifetime.start.p0i8(i64 160, i8* nonnull %8) #5
  %9 = call i32 (i8*, ...) @__isoc99_scanf(i8* getelementptr inbounds ([3 x i8], [3 x i8]* @.str, i64 0, i64 0), i32* nonnull %1)
  %10 = load i32, i32* %1, align 4, !tbaa !5
  %11 = icmp slt i32 %10, 1
  br i1 %11, label %69, label %14

12:                                               ; preds = %14
  %13 = icmp slt i32 %21, 1
  br i1 %13, label %69, label %24

14:                                               ; preds = %0, %14
  %15 = phi i64 [ %20, %14 ], [ 1, %0 ]
  %16 = getelementptr inbounds [20 x double], [20 x double]* %2, i64 0, i64 %15
  %17 = getelementptr inbounds [20 x double], [20 x double]* %3, i64 0, i64 %15
  %18 = getelementptr inbounds [20 x double], [20 x double]* %4, i64 0, i64 %15
  %19 = call i32 (i8*, ...) @__isoc99_scanf(i8* getelementptr inbounds ([12 x i8], [12 x i8]* @.str.1, i64 0, i64 0), double* nonnull %16, double* nonnull %17, double* nonnull %18)
  %20 = add nuw nsw i64 %15, 1
  %21 = load i32, i32* %1, align 4, !tbaa !5
  %22 = sext i32 %21 to i64
  %23 = icmp slt i64 %15, %22
  br i1 %23, label %14, label %12, !llvm.loop !9

24:                                               ; preds = %12, %64
  %25 = phi i64 [ %65, %64 ], [ 1, %12 ]
  %26 = getelementptr inbounds [20 x double], [20 x double]* %2, i64 0, i64 %25
  %27 = load double, double* %26, align 8, !tbaa !11
  %28 = getelementptr inbounds [20 x double], [20 x double]* %3, i64 0, i64 %25
  %29 = load double, double* %28, align 8, !tbaa !11
  %30 = getelementptr inbounds [20 x double], [20 x double]* %4, i64 0, i64 %25
  %31 = load double, double* %30, align 8, !tbaa !11
  %32 = fmul double %29, %29
  %33 = fmul double %27, 4.000000e+00
  %34 = fmul double %33, %31
  %35 = fsub double %32, %34
  %36 = fcmp ult double %35, 0.000000e+00
  br i1 %36, label %53, label %37

37:                                               ; preds = %24
  %38 = fcmp ogt double %35, 0.000000e+00
  %39 = fneg double %29
  br i1 %38, label %40, label %49

40:                                               ; preds = %37
  %41 = call double @sqrt(double %35) #5
  %42 = fsub double %41, %29
  %43 = fmul double %27, 2.000000e+00
  %44 = fdiv double %42, %43
  %45 = call double @sqrt(double %35) #5
  %46 = fsub double %39, %45
  %47 = fdiv double %46, %43
  %48 = call i32 (i8*, ...) @printf(i8* nonnull dereferenceable(1) getelementptr inbounds ([19 x i8], [19 x i8]* @.str.2, i64 0, i64 0), double %44, double %47)
  br label %64

49:                                               ; preds = %37
  %50 = fmul double %27, 2.000000e+00
  %51 = fdiv double %39, %50
  %52 = call i32 (i8*, ...) @printf(i8* nonnull dereferenceable(1) getelementptr inbounds ([13 x i8], [13 x i8]* @.str.3, i64 0, i64 0), double %51)
  br label %64

53:                                               ; preds = %24
  %54 = fneg double %29
  %55 = fmul double %27, 2.000000e+00
  %56 = fdiv double %54, %55
  %57 = fsub double %34, %32
  %58 = call double @sqrt(double %57) #5
  %59 = fdiv double %58, %55
  %60 = call double @llvm.fabs.f64(double %56)
  %61 = fcmp olt double %60, 1.000000e-05
  %62 = select i1 %61, double 0.000000e+00, double %56
  %63 = call i32 (i8*, ...) @printf(i8* nonnull dereferenceable(1) getelementptr inbounds ([29 x i8], [29 x i8]* @.str.4, i64 0, i64 0), double %62, double %59, double %62, double %59)
  br label %64

64:                                               ; preds = %53, %49, %40
  %65 = add nuw nsw i64 %25, 1
  %66 = load i32, i32* %1, align 4, !tbaa !5
  %67 = sext i32 %66 to i64
  %68 = icmp slt i64 %25, %67
  br i1 %68, label %24, label %69, !llvm.loop !13

69:                                               ; preds = %64, %0, %12
  %70 = load %struct._IO_FILE*, %struct._IO_FILE** @stdin, align 8, !tbaa !14
  %71 = call i32 @getc(%struct._IO_FILE* %70) #5
  %72 = load %struct._IO_FILE*, %struct._IO_FILE** @stdin, align 8, !tbaa !14
  %73 = call i32 @getc(%struct._IO_FILE* %72) #5
  call void @llvm.lifetime.end.p0i8(i64 160, i8* nonnull %8) #5
  call void @llvm.lifetime.end.p0i8(i64 160, i8* nonnull %7) #5
  call void @llvm.lifetime.end.p0i8(i64 160, i8* nonnull %6) #5
  call void @llvm.lifetime.end.p0i8(i64 4, i8* nonnull %5) #5
  ret i32 0
}

; Function Attrs: argmemonly mustprogress nofree nosync nounwind willreturn
declare void @llvm.lifetime.start.p0i8(i64 immarg, i8* nocapture) #1

; Function Attrs: nofree nounwind
declare noundef i32 @__isoc99_scanf(i8* nocapture noundef readonly, ...) local_unnamed_addr #2

; Function Attrs: mustprogress nofree nounwind willreturn
declare double @sqrt(double) local_unnamed_addr #3

; Function Attrs: nofree nounwind
declare noundef i32 @printf(i8* nocapture noundef readonly, ...) local_unnamed_addr #2

; Function Attrs: mustprogress nofree nosync nounwind readnone speculatable willreturn
declare double @llvm.fabs.f64(double) #4

; Function Attrs: argmemonly mustprogress nofree nosync nounwind willreturn
declare void @llvm.lifetime.end.p0i8(i64 immarg, i8* nocapture) #1

; Function Attrs: nofree nounwind
declare noundef i32 @getc(%struct._IO_FILE* nocapture noundef) local_unnamed_addr #2


!llvm.module.flags = !{!0, !1, !2, !3}
!llvm.ident = !{!4}

!0 = !{i32 1, !"wchar_size", i32 4}
!1 = !{i32 7, !"PIC Level", i32 2}
!2 = !{i32 7, !"PIE Level", i32 2}
!3 = !{i32 7, !"uwtable", i32 1}
!4 = !{!"clang version 13.0.0"}
!5 = !{!6, !6, i64 0}
!6 = !{!"int", !7, i64 0}
!7 = !{!"omnipotent char", !8, i64 0}
!8 = !{!"Simple C/C++ TBAA"}
!9 = distinct !{!9, !10}
!10 = !{!"llvm.loop.mustprogress"}
!11 = !{!12, !12, i64 0}
!12 = !{!"double", !7, i64 0}
!13 = distinct !{!13, !10}
!14 = !{!15, !15, i64 0}
!15 = !{!"any pointer", !7, i64 0}
